target datalayout = "e-m:e-p270:32:32-p271:32:32-p272:64:64-i64:64-i128:128-f80:128-n8:16:32:64-S128"
target triple = "x86_64-pc-linux-gnu"

%struct.SN_env = type { ptr, i32, i32, i32, i32, i32, ptr, ptr }

@s_64 = internal constant [6 x i8] c"\CE\B9\CF\83\CE\BA", align 1

; Function Attrs: nounwind uwtable
define internal i32 @r_steps10(ptr noundef %0) #0 {
  %2 = alloca i32, align 4
  %3 = alloca ptr, align 8
  %4 = alloca i32, align 4
  %5 = alloca i32, align 4
  %6 = alloca i32, align 4
  store ptr %0, ptr %3, align 8
  %7 = load ptr, ptr %3, align 8
  %8 = getelementptr inbounds nuw %struct.SN_env, ptr %7, i32 0, i32 1
  %9 = load i32, ptr %8, align 8
  %10 = load ptr, ptr %3, align 8
  %11 = getelementptr inbounds nuw %struct.SN_env, ptr %10, i32 0, i32 5
  store i32 %9, ptr %11, align 8
  %12 = load ptr, ptr %3, align 8
  %13 = call i32 @find_among_b(ptr noundef %12, ptr noundef @a_23, i32 noundef 4)
  %14 = icmp ne i32 %13, 0
  br i1 %14, label %16, label %15

15:                                               ; preds = %1
  store i32 0, ptr %2, align 4
  br label %70

16:                                               ; preds = %1
  %17 = load ptr, ptr %3, align 8
  %18 = getelementptr inbounds nuw %struct.SN_env, ptr %17, i32 0, i32 1
  %19 = load i32, ptr %18, align 8
  %20 = load ptr, ptr %3, align 8
  %21 = getelementptr inbounds nuw %struct.SN_env, ptr %20, i32 0, i32 4
  store i32 %19, ptr %21, align 4
  call void @llvm.lifetime.start.p0(i64 4, ptr %4) #3
  %22 = load ptr, ptr %3, align 8
  %23 = call i32 @slice_del(ptr noundef %22)
  store i32 %23, ptr %4, align 4
  %24 = load i32, ptr %4, align 4
  %25 = icmp slt i32 %24, 0
  br i1 %25, label %26, label %28

26:                                               ; preds = %16
  %27 = load i32, ptr %4, align 4
  store i32 %27, ptr %2, align 4
  store i32 1, ptr %5, align 4
  br label %29

28:                                               ; preds = %16
  store i32 0, ptr %5, align 4
  br label %29

29:                                               ; preds = %28, %26
  call void @llvm.lifetime.end.p0(i64 4, ptr %4) #3
  %30 = load i32, ptr %5, align 4
  switch i32 %30, label %72 [
    i32 0, label %31
    i32 1, label %70
  ]

31:                                               ; preds = %29
  %32 = load ptr, ptr %3, align 8
  %33 = getelementptr inbounds nuw %struct.SN_env, ptr %32, i32 0, i32 7
  %34 = load ptr, ptr %33, align 8
  %35 = getelementptr inbounds i32, ptr %34, i64 0
  store i32 0, ptr %35, align 4
  %36 = load ptr, ptr %3, align 8
  %37 = getelementptr inbounds nuw %struct.SN_env, ptr %36, i32 0, i32 1
  %38 = load i32, ptr %37, align 8
  %39 = load ptr, ptr %3, align 8
  %40 = getelementptr inbounds nuw %struct.SN_env, ptr %39, i32 0, i32 5
  store i32 %38, ptr %40, align 8
  %41 = load ptr, ptr %3, align 8
  %42 = getelementptr inbounds nuw %struct.SN_env, ptr %41, i32 0, i32 1
  %43 = load i32, ptr %42, align 8
  %44 = load ptr, ptr %3, align 8
  %45 = getelementptr inbounds nuw %struct.SN_env, ptr %44, i32 0, i32 4
  store i32 %43, ptr %45, align 4
  %46 = load ptr, ptr %3, align 8
  %47 = call i32 @find_among_b(ptr noundef %46, ptr noundef @a_22, i32 noundef 7)
  %48 = icmp ne i32 %47, 0
  br i1 %48, label %50, label %49

49:                                               ; preds = %31
  store i32 0, ptr %2, align 4
  br label %70

50:                                               ; preds = %31
  %51 = load ptr, ptr %3, align 8
  %52 = getelementptr inbounds nuw %struct.SN_env, ptr %51, i32 0, i32 1
  %53 = load i32, ptr %52, align 8
  %54 = load ptr, ptr %3, align 8
  %55 = getelementptr inbounds nuw %struct.SN_env, ptr %54, i32 0, i32 3
  %56 = load i32, ptr %55, align 8
  %57 = icmp sgt i32 %53, %56
  br i1 %57, label %58, label %59

58:                                               ; preds = %50
  store i32 0, ptr %2, align 4
  br label %70

59:                                               ; preds = %50
  call void @llvm.lifetime.start.p0(i64 4, ptr %6) #3
  %60 = load ptr, ptr %3, align 8
  %61 = call i32 @slice_from_s(ptr noundef %60, i32 noundef 6, ptr noundef @s_64)
  store i32 %61, ptr %6, align 4
  %62 = load i32, ptr %6, align 4
  %63 = icmp slt i32 %62, 0
  br i1 %63, label %64, label %66

64:                                               ; preds = %59
  %65 = load i32, ptr %6, align 4
  store i32 %65, ptr %2, align 4
  store i32 1, ptr %5, align 4
  br label %67

66:                                               ; preds = %59
  store i32 0, ptr %5, align 4
  br label %67

67:                                               ; preds = %66, %64
  call void @llvm.lifetime.end.p0(i64 4, ptr %6) #3
  %68 = load i32, ptr %5, align 4
  switch i32 %68, label %72 [
    i32 0, label %69
    i32 1, label %70
  ]

69:                                               ; preds = %67
  store i32 1, ptr %2, align 4
  br label %70

70:                                               ; preds = %69, %67, %58, %49, %29, %15
  %71 = load i32, ptr %2, align 4
  ret i32 %71

72:                                               ; preds = %67, %29
  unreachable
}