; Function Attrs: nounwind uwtable
define internal fastcc i32 @r_steps10(ptr noundef initializes((24, 28)) %0) unnamed_addr #0 {
  %2 = getelementptr inbounds nuw i8, ptr %0, i64 8
  %3 = load i32, ptr %2, align 8
  %4 = getelementptr inbounds nuw i8, ptr %0, i64 24
  store i32 %3, ptr %4, align 8
  %5 = tail call i32 @find_among_b(ptr noundef %0, ptr noundef nonnull @a_23, i32 noundef 4) #2
  %.not = icmp eq i32 %5, 0
  br i1 %.not, label %24, label %6

6:                                                ; preds = %1
  %7 = load i32, ptr %2, align 8
  %8 = getelementptr inbounds nuw i8, ptr %0, i64 20
  store i32 %7, ptr %8, align 4
  %9 = tail call i32 @slice_del(ptr noundef nonnull %0) #2
  %10 = icmp sgt i32 %9, -1
  br i1 %10, label %11, label %24

11:                                               ; preds = %6
  %12 = getelementptr inbounds nuw i8, ptr %0, i64 40
  %13 = load ptr, ptr %12, align 8
  store i32 0, ptr %13, align 4
  %14 = load i32, ptr %2, align 8
  store i32 %14, ptr %4, align 8
  store i32 %14, ptr %8, align 4
  %15 = tail call i32 @find_among_b(ptr noundef nonnull %0, ptr noundef nonnull @a_22, i32 noundef 7) #2
  %.not24 = icmp eq i32 %15, 0
  br i1 %.not24, label %24, label %16

16:                                               ; preds = %11
  %17 = load i32, ptr %2, align 8
  %18 = getelementptr inbounds nuw i8, ptr %0, i64 16
  %19 = load i32, ptr %18, align 8
  %20 = icmp sgt i32 %17, %19
  br i1 %20, label %24, label %21

21:                                               ; preds = %16
  %22 = tail call i32 @slice_from_s(ptr noundef nonnull %0, i32 noundef 6, ptr noundef nonnull @s_64) #2
  %23 = icmp sgt i32 %22, -1
  %spec.select = select i1 %23, i32 1, i32 %22
  br label %24

24:                                               ; preds = %21, %6, %16, %11, %1
  %.0 = phi i32 [ %9, %6 ], [ 0, %1 ], [ 0, %11 ], [ 0, %16 ], [ %spec.select, %21 ]
  ret i32 %.0
}